; Function Attrs: mustprogress uwtable
define hidden void @_ZN2cv10xobjdetect15CvFeatureParams6createEv(ptr dead_on_unwind noalias writable writeonly sret(%"struct.cv::Ptr.0") align 8 captures(none) %0) local_unnamed_addr #3 align 2 personality ptr @__gxx_personality_v0 {
  %2 = tail call noalias noundef nonnull dereferenceable(48) ptr @_Znwm(i64 noundef 48) #24
  invoke void @_ZN2cv10xobjdetect18CvLBPFeatureParamsC1Ev(ptr noundef nonnull align 8 dereferenceable(48) %2)
          to label %3 unwind label %22

3:                                                ; preds = %1
  store ptr %2, ptr %0, align 8, !tbaa !63
  %4 = getelementptr inbounds nuw i8, ptr %0, i64 8
  store ptr null, ptr %4, align 8, !tbaa !66
  %5 = invoke noalias noundef nonnull dereferenceable(24) ptr @_Znwm(i64 noundef 24) #24
          to label %_ZN2cv3PtrINS_10xobjdetect15CvFeatureParamsEEC2INS1_18CvLBPFeatureParamsEEEPT_.exit unwind label %6

6:                                                ; preds = %3
  %7 = landingpad { ptr, i32 }
          catch ptr null
  %8 = extractvalue { ptr, i32 } %7, 0
  %9 = tail call ptr @__cxa_begin_catch(ptr %8) #21
  %10 = load ptr, ptr %2, align 8, !tbaa !21
  %11 = getelementptr inbounds nuw i8, ptr %10, i64 8
  %12 = load ptr, ptr %11, align 8
  tail call void %12(ptr noundef nonnull align 8 dereferenceable(48) %2) #21
  invoke void @__cxa_rethrow() #22
          to label %18 unwind label %13

13:                                               ; preds = %6
  %14 = landingpad { ptr, i32 }
          cleanup
  invoke void @__cxa_end_catch()
          to label %common.resume unwind label %15

common.resume:                                    ; preds = %13, %22
  %common.resume.op = phi { ptr, i32 } [ %23, %22 ], [ %14, %13 ]
  resume { ptr, i32 } %common.resume.op

15:                                               ; preds = %13
  %16 = landingpad { ptr, i32 }
          catch ptr null
  %17 = extractvalue { ptr, i32 } %16, 0
  tail call void @__clang_call_terminate(ptr %17) #25
  unreachable

18:                                               ; preds = %6
  unreachable

_ZN2cv3PtrINS_10xobjdetect15CvFeatureParamsEEC2INS1_18CvLBPFeatureParamsEEEPT_.exit: ; preds = %3
  %19 = getelementptr inbounds nuw i8, ptr %5, i64 8
  store i32 1, ptr %19, align 8, !tbaa !67
  %20 = getelementptr inbounds nuw i8, ptr %5, i64 12
  store i32 1, ptr %20, align 4, !tbaa !69
  store ptr getelementptr inbounds nuw inrange(-16, 40) (i8, ptr @_ZTVSt15_Sp_counted_ptrIPN2cv10xobjdetect18CvLBPFeatureParamsELN9__gnu_cxx12_Lock_policyE2EE, i64 16), ptr %5, align 8, !tbaa !21
  %21 = getelementptr inbounds nuw i8, ptr %5, i64 16
  store ptr %2, ptr %21, align 8, !tbaa !70
  store ptr %5, ptr %4, align 8, !tbaa !66
  ret void

22:                                               ; preds = %1
  %23 = landingpad { ptr, i32 }
          cleanup
  tail call void @_ZdlPv(ptr noundef nonnull %2) #23
  br label %common.resume
}